target datalayout = "e-m:e-p270:32:32-p271:32:32-p272:64:64-i64:64-i128:128-f80:128-n8:16:32:64-S128"
target triple = "x86_64-pc-linux-gnu"

%struct.Qureg = type { i32, i32, i32, i64, i64, i32, i32, %struct.ComplexArray, %struct.ComplexArray, %struct.ComplexArray, ptr, ptr, ptr, ptr, ptr, ptr }
%struct.ComplexArray = type { ptr, ptr }

@__func__.rotateY = private unnamed_addr constant [8 x i8] c"rotateY\00", align 1

; Function Attrs: nounwind uwtable
define void @rotateY(ptr noundef byval(%struct.Qureg) align 8 %0, i32 noundef %1, double noundef %2) #0 {
  %4 = alloca i32, align 4
  %5 = alloca double, align 8
  store i32 %1, ptr %4, align 4, !tbaa !4
  store double %2, ptr %5, align 8, !tbaa !25
  %6 = load i32, ptr %4, align 4, !tbaa !4
  call void @validateTarget(ptr noundef byval(%struct.Qureg) align 8 %0, i32 noundef %6, ptr noundef @__func__.rotateY)
  %7 = load i32, ptr %4, align 4, !tbaa !4
  %8 = load double, ptr %5, align 8, !tbaa !25
  call void @statevec_rotateY(ptr noundef byval(%struct.Qureg) align 8 %0, i32 noundef %7, double noundef %8)
  %9 = getelementptr inbounds nuw %struct.Qureg, ptr %0, i32 0, i32 0
  %10 = load i32, ptr %9, align 8, !tbaa !13
  %11 = icmp ne i32 %10, 0
  br i1 %11, label %12, label %18

12:                                               ; preds = %3
  %13 = load i32, ptr %4, align 4, !tbaa !4
  %14 = getelementptr inbounds nuw %struct.Qureg, ptr %0, i32 0, i32 1
  %15 = load i32, ptr %14, align 4, !tbaa !18
  %16 = add nsw i32 %13, %15
  %17 = load double, ptr %5, align 8, !tbaa !25
  call void @statevec_rotateY(ptr noundef byval(%struct.Qureg) align 8 %0, i32 noundef %16, double noundef %17)
  br label %18

18:                                               ; preds = %12, %3
  %19 = load i32, ptr %4, align 4, !tbaa !4
  %20 = load double, ptr %5, align 8, !tbaa !25
  call void @qasm_recordParamGate(ptr noundef byval(%struct.Qureg) align 8 %0, i32 noundef 7, i32 noundef %19, double noundef %20)
  ret void
}