; Function Attrs: nounwind uwtable
define void @rotateY(ptr noundef readonly byval(%struct.Qureg) align 8 captures(none) %0, i32 noundef %1, double noundef %2) local_unnamed_addr #0 {
  tail call void @validateTarget(ptr noundef nonnull byval(%struct.Qureg) align 8 %0, i32 noundef %1, ptr noundef nonnull @__func__.rotateY) #17
  tail call void @statevec_rotateY(ptr noundef nonnull byval(%struct.Qureg) align 8 %0, i32 noundef %1, double noundef %2) #17
  %4 = load i32, ptr %0, align 8, !tbaa !12
  %.not = icmp eq i32 %4, 0
  br i1 %.not, label %9, label %5

5:                                                ; preds = %3
  %6 = getelementptr inbounds nuw i8, ptr %0, i64 4
  %7 = load i32, ptr %6, align 4, !tbaa !17
  %8 = add nsw i32 %7, %1
  tail call void @statevec_rotateY(ptr noundef nonnull byval(%struct.Qureg) align 8 %0, i32 noundef %8, double noundef %2) #17
  br label %9

9:                                                ; preds = %5, %3
  tail call void @qasm_recordParamGate(ptr noundef nonnull byval(%struct.Qureg) align 8 %0, i32 noundef 7, i32 noundef %1, double noundef %2) #17
  ret void
}